; Function Attrs: cold nounwind optsize uwtable
define internal range(i32 -22, 1) i32 @flat_init(ptr noundef %0) #0 {
  %2 = getelementptr inbounds nuw i8, ptr %0, i64 32
  %3 = load ptr, ptr %2, align 8, !tbaa !4
  %4 = getelementptr inbounds nuw i8, ptr %3, i64 8
  %5 = load ptr, ptr %4, align 8, !tbaa !16
  %6 = tail call i64 @strlen(ptr noundef nonnull dereferenceable(1) %5) #7
  %.not = icmp eq i64 %6, 1
  br i1 %.not, label %8, label %7

7:                                                ; preds = %1
  tail call void (ptr, i32, ptr, ...) @av_log(ptr noundef nonnull %0, i32 noundef 16, ptr noundef nonnull @.str.10, ptr noundef nonnull %5) #8
  br label %11

8:                                                ; preds = %1
  %9 = load i8, ptr %5, align 1, !tbaa !18
  %10 = getelementptr inbounds nuw i8, ptr %3, i64 16
  store i8 %9, ptr %10, align 8, !tbaa !19
  br label %11

11:                                               ; preds = %8, %7
  %.0 = phi i32 [ -22, %7 ], [ 0, %8 ]
  ret i32 %.0
}